; Function Attrs: mustprogress uwtable
define internal fastcc noundef i32 @_ZN12_GLOBAL__N_129RunTestWithInvariantDebuggingEPFvPNS_11TestContextEiEiiiPFvPvE(ptr noundef %test, i32 noundef %threads, i32 noundef %iterations) unnamed_addr #3 personality ptr @__gxx_personality_v0 {
entry:
  %cxt = alloca %"struct.(anonymous namespace)::TestContext", align 8
  %ref.tmp4 = alloca %"class.absl::log_internal::LogMessageFatal", align 8
  tail call void @_ZN4absl29EnableMutexInvariantDebuggingEb(i1 noundef zeroext true)
  store atomic i8 0, ptr @_ZN12_GLOBAL__N_117invariant_checkedE.0 monotonic, align 1
  %mu.i = getelementptr inbounds i8, ptr %cxt, i64 16
  call void @llvm.memset.p0.i64(ptr noundef nonnull align 8 dereferenceable(16) %mu.i, i8 0, i64 16, i1 false)
  call void @_ZN4absl5Mutex24EnableInvariantDebuggingEPFvPvES1_(ptr noundef nonnull align 8 dereferenceable(8) %mu.i, ptr noundef nonnull @_ZN12_GLOBAL__N_112CheckSumG0G1EPv, ptr noundef nonnull %cxt)
  %call = call fastcc noundef i32 @_ZN12_GLOBAL__N_113RunTestCommonEPNS_11TestContextEPFvS1_iEiii(ptr noundef nonnull %cxt, ptr noundef %test, i32 noundef %threads, i32 noundef %iterations)
  %0 = load atomic i8, ptr @_ZN12_GLOBAL__N_117invariant_checkedE.0 monotonic, align 1
  %1 = and i8 %0, 1
  %tobool.i.i.i.not = icmp eq i8 %1, 0
  br i1 %tobool.i.i.i.not, label %cond.false, label %cleanup.done

cond.false:                                       ; preds = %entry
  call void @_ZN4absl12log_internal15LogMessageFatalC1EPKciSt17basic_string_viewIcSt11char_traitsIcEE(ptr noundef nonnull align 8 dereferenceable(16) %ref.tmp4, ptr noundef nonnull @.str.3, i32 noundef 403, i64 21, ptr nonnull @.str.163) #40
  invoke void @_ZN4absl12log_internal10LogMessage19CopyToEncodedBufferILNS1_10StringTypeE0EEEvSt17basic_string_viewIcSt11char_traitsIcEE(ptr noundef nonnull align 8 dereferenceable(16) %ref.tmp4, i64 21, ptr nonnull @.str.164)
          to label %cleanup.action unwind label %lpad7

cleanup.action:                                   ; preds = %cond.false
  call void @_ZN4absl12log_internal15LogMessageFatalD1Ev(ptr noundef nonnull align 8 dereferenceable(16) %ref.tmp4) #38
  unreachable

lpad7:                                            ; preds = %cond.false
  %2 = landingpad { ptr, i32 }
          cleanup
  call void @_ZN4absl12log_internal15LogMessageFatalD1Ev(ptr noundef nonnull align 8 dereferenceable(16) %ref.tmp4) #38
  unreachable

cleanup.done:                                     ; preds = %entry
  call void @_ZN4absl29EnableMutexInvariantDebuggingEb(i1 noundef zeroext false)
  ret i32 %call
}